target datalayout = "e-m:e-p270:32:32-p271:32:32-p272:64:64-i64:64-i128:128-f80:128-n8:16:32:64-S128"
target triple = "x86_64-pc-linux-gnu"

; Function Attrs: inlinehint nounwind uwtable
define internal void @_mpd_divmod_pow10(ptr noundef %0, ptr noundef %1, i64 noundef %2, i64 noundef %3) #2 {
  %5 = alloca ptr, align 8
  %6 = alloca ptr, align 8
  %7 = alloca i64, align 8
  %8 = alloca i64, align 8
  store ptr %0, ptr %5, align 8, !tbaa !24
  store ptr %1, ptr %6, align 8, !tbaa !24
  store i64 %2, ptr %7, align 8, !tbaa !3
  store i64 %3, ptr %8, align 8, !tbaa !3
  %9 = load i64, ptr %8, align 8, !tbaa !3
  %10 = icmp ule i64 %9, 9
  br i1 %10, label %11, label %115

11:                                               ; preds = %4
  %12 = load i64, ptr %8, align 8, !tbaa !3
  %13 = icmp ule i64 %12, 4
  br i1 %13, label %14, label %61

14:                                               ; preds = %11
  %15 = load i64, ptr %8, align 8, !tbaa !3
  switch i64 %15, label %60 [
    i64 0, label %16
    i64 1, label %20
    i64 2, label %30
    i64 3, label %40
    i64 4, label %50
  ]

16:                                               ; preds = %14
  %17 = load i64, ptr %7, align 8, !tbaa !3
  %18 = load ptr, ptr %5, align 8, !tbaa !24
  store i64 %17, ptr %18, align 8, !tbaa !3
  %19 = load ptr, ptr %6, align 8, !tbaa !24
  store i64 0, ptr %19, align 8, !tbaa !3
  br label %60

20:                                               ; preds = %14
  %21 = load i64, ptr %7, align 8, !tbaa !3
  %22 = udiv i64 %21, 10
  %23 = load ptr, ptr %5, align 8, !tbaa !24
  store i64 %22, ptr %23, align 8, !tbaa !3
  %24 = load i64, ptr %7, align 8, !tbaa !3
  %25 = load ptr, ptr %5, align 8, !tbaa !24
  %26 = load i64, ptr %25, align 8, !tbaa !3
  %27 = mul i64 %26, 10
  %28 = sub i64 %24, %27
  %29 = load ptr, ptr %6, align 8, !tbaa !24
  store i64 %28, ptr %29, align 8, !tbaa !3
  br label %60

30:                                               ; preds = %14
  %31 = load i64, ptr %7, align 8, !tbaa !3
  %32 = udiv i64 %31, 100
  %33 = load ptr, ptr %5, align 8, !tbaa !24
  store i64 %32, ptr %33, align 8, !tbaa !3
  %34 = load i64, ptr %7, align 8, !tbaa !3
  %35 = load ptr, ptr %5, align 8, !tbaa !24
  %36 = load i64, ptr %35, align 8, !tbaa !3
  %37 = mul i64 %36, 100
  %38 = sub i64 %34, %37
  %39 = load ptr, ptr %6, align 8, !tbaa !24
  store i64 %38, ptr %39, align 8, !tbaa !3
  br label %60

40:                                               ; preds = %14
  %41 = load i64, ptr %7, align 8, !tbaa !3
  %42 = udiv i64 %41, 1000
  %43 = load ptr, ptr %5, align 8, !tbaa !24
  store i64 %42, ptr %43, align 8, !tbaa !3
  %44 = load i64, ptr %7, align 8, !tbaa !3
  %45 = load ptr, ptr %5, align 8, !tbaa !24
  %46 = load i64, ptr %45, align 8, !tbaa !3
  %47 = mul i64 %46, 1000
  %48 = sub i64 %44, %47
  %49 = load ptr, ptr %6, align 8, !tbaa !24
  store i64 %48, ptr %49, align 8, !tbaa !3
  br label %60

50:                                               ; preds = %14
  %51 = load i64, ptr %7, align 8, !tbaa !3
  %52 = udiv i64 %51, 10000
  %53 = load ptr, ptr %5, align 8, !tbaa !24
  store i64 %52, ptr %53, align 8, !tbaa !3
  %54 = load i64, ptr %7, align 8, !tbaa !3
  %55 = load ptr, ptr %5, align 8, !tbaa !24
  %56 = load i64, ptr %55, align 8, !tbaa !3
  %57 = mul i64 %56, 10000
  %58 = sub i64 %54, %57
  %59 = load ptr, ptr %6, align 8, !tbaa !24
  store i64 %58, ptr %59, align 8, !tbaa !3
  br label %60

60:                                               ; preds = %14, %50, %40, %30, %20, %16
  br label %114

61:                                               ; preds = %11
  %62 = load i64, ptr %8, align 8, !tbaa !3
  switch i64 %62, label %113 [
    i64 5, label %63
    i64 6, label %73
    i64 7, label %83
    i64 8, label %93
    i64 9, label %103
  ]

63:                                               ; preds = %61
  %64 = load i64, ptr %7, align 8, !tbaa !3
  %65 = udiv i64 %64, 100000
  %66 = load ptr, ptr %5, align 8, !tbaa !24
  store i64 %65, ptr %66, align 8, !tbaa !3
  %67 = load i64, ptr %7, align 8, !tbaa !3
  %68 = load ptr, ptr %5, align 8, !tbaa !24
  %69 = load i64, ptr %68, align 8, !tbaa !3
  %70 = mul i64 %69, 100000
  %71 = sub i64 %67, %70
  %72 = load ptr, ptr %6, align 8, !tbaa !24
  store i64 %71, ptr %72, align 8, !tbaa !3
  br label %113

73:                                               ; preds = %61
  %74 = load i64, ptr %7, align 8, !tbaa !3
  %75 = udiv i64 %74, 1000000
  %76 = load ptr, ptr %5, align 8, !tbaa !24
  store i64 %75, ptr %76, align 8, !tbaa !3
  %77 = load i64, ptr %7, align 8, !tbaa !3
  %78 = load ptr, ptr %5, align 8, !tbaa !24
  %79 = load i64, ptr %78, align 8, !tbaa !3
  %80 = mul i64 %79, 1000000
  %81 = sub i64 %77, %80
  %82 = load ptr, ptr %6, align 8, !tbaa !24
  store i64 %81, ptr %82, align 8, !tbaa !3
  br label %113

83:                                               ; preds = %61
  %84 = load i64, ptr %7, align 8, !tbaa !3
  %85 = udiv i64 %84, 10000000
  %86 = load ptr, ptr %5, align 8, !tbaa !24
  store i64 %85, ptr %86, align 8, !tbaa !3
  %87 = load i64, ptr %7, align 8, !tbaa !3
  %88 = load ptr, ptr %5, align 8, !tbaa !24
  %89 = load i64, ptr %88, align 8, !tbaa !3
  %90 = mul i64 %89, 10000000
  %91 = sub i64 %87, %90
  %92 = load ptr, ptr %6, align 8, !tbaa !24
  store i64 %91, ptr %92, align 8, !tbaa !3
  br label %113

93:                                               ; preds = %61
  %94 = load i64, ptr %7, align 8, !tbaa !3
  %95 = udiv i64 %94, 100000000
  %96 = load ptr, ptr %5, align 8, !tbaa !24
  store i64 %95, ptr %96, align 8, !tbaa !3
  %97 = load i64, ptr %7, align 8, !tbaa !3
  %98 = load ptr, ptr %5, align 8, !tbaa !24
  %99 = load i64, ptr %98, align 8, !tbaa !3
  %100 = mul i64 %99, 100000000
  %101 = sub i64 %97, %100
  %102 = load ptr, ptr %6, align 8, !tbaa !24
  store i64 %101, ptr %102, align 8, !tbaa !3
  br label %113

103:                                              ; preds = %61
  %104 = load i64, ptr %7, align 8, !tbaa !3
  %105 = udiv i64 %104, 1000000000
  %106 = load ptr, ptr %5, align 8, !tbaa !24
  store i64 %105, ptr %106, align 8, !tbaa !3
  %107 = load i64, ptr %7, align 8, !tbaa !3
  %108 = load ptr, ptr %5, align 8, !tbaa !24
  %109 = load i64, ptr %108, align 8, !tbaa !3
  %110 = mul i64 %109, 1000000000
  %111 = sub i64 %107, %110
  %112 = load ptr, ptr %6, align 8, !tbaa !24
  store i64 %111, ptr %112, align 8, !tbaa !3
  br label %113

113:                                              ; preds = %61, %103, %93, %83, %73, %63
  br label %114

114:                                              ; preds = %113, %60
  br label %225

115:                                              ; preds = %4
  %116 = load i64, ptr %8, align 8, !tbaa !3
  %117 = icmp ule i64 %116, 14
  br i1 %117, label %118, label %171

118:                                              ; preds = %115
  %119 = load i64, ptr %8, align 8, !tbaa !3
  switch i64 %119, label %170 [
    i64 10, label %120
    i64 11, label %130
    i64 12, label %140
    i64 13, label %150
    i64 14, label %160
  ]

120:                                              ; preds = %118
  %121 = load i64, ptr %7, align 8, !tbaa !3
  %122 = udiv i64 %121, 10000000000
  %123 = load ptr, ptr %5, align 8, !tbaa !24
  store i64 %122, ptr %123, align 8, !tbaa !3
  %124 = load i64, ptr %7, align 8, !tbaa !3
  %125 = load ptr, ptr %5, align 8, !tbaa !24
  %126 = load i64, ptr %125, align 8, !tbaa !3
  %127 = mul i64 %126, 10000000000
  %128 = sub i64 %124, %127
  %129 = load ptr, ptr %6, align 8, !tbaa !24
  store i64 %128, ptr %129, align 8, !tbaa !3
  br label %170

130:                                              ; preds = %118
  %131 = load i64, ptr %7, align 8, !tbaa !3
  %132 = udiv i64 %131, 100000000000
  %133 = load ptr, ptr %5, align 8, !tbaa !24
  store i64 %132, ptr %133, align 8, !tbaa !3
  %134 = load i64, ptr %7, align 8, !tbaa !3
  %135 = load ptr, ptr %5, align 8, !tbaa !24
  %136 = load i64, ptr %135, align 8, !tbaa !3
  %137 = mul i64 %136, 100000000000
  %138 = sub i64 %134, %137
  %139 = load ptr, ptr %6, align 8, !tbaa !24
  store i64 %138, ptr %139, align 8, !tbaa !3
  br label %170

140:                                              ; preds = %118
  %141 = load i64, ptr %7, align 8, !tbaa !3
  %142 = udiv i64 %141, 1000000000000
  %143 = load ptr, ptr %5, align 8, !tbaa !24
  store i64 %142, ptr %143, align 8, !tbaa !3
  %144 = load i64, ptr %7, align 8, !tbaa !3
  %145 = load ptr, ptr %5, align 8, !tbaa !24
  %146 = load i64, ptr %145, align 8, !tbaa !3
  %147 = mul i64 %146, 1000000000000
  %148 = sub i64 %144, %147
  %149 = load ptr, ptr %6, align 8, !tbaa !24
  store i64 %148, ptr %149, align 8, !tbaa !3
  br label %170

150:                                              ; preds = %118
  %151 = load i64, ptr %7, align 8, !tbaa !3
  %152 = udiv i64 %151, 10000000000000
  %153 = load ptr, ptr %5, align 8, !tbaa !24
  store i64 %152, ptr %153, align 8, !tbaa !3
  %154 = load i64, ptr %7, align 8, !tbaa !3
  %155 = load ptr, ptr %5, align 8, !tbaa !24
  %156 = load i64, ptr %155, align 8, !tbaa !3
  %157 = mul i64 %156, 10000000000000
  %158 = sub i64 %154, %157
  %159 = load ptr, ptr %6, align 8, !tbaa !24
  store i64 %158, ptr %159, align 8, !tbaa !3
  br label %170

160:                                              ; preds = %118
  %161 = load i64, ptr %7, align 8, !tbaa !3
  %162 = udiv i64 %161, 100000000000000
  %163 = load ptr, ptr %5, align 8, !tbaa !24
  store i64 %162, ptr %163, align 8, !tbaa !3
  %164 = load i64, ptr %7, align 8, !tbaa !3
  %165 = load ptr, ptr %5, align 8, !tbaa !24
  %166 = load i64, ptr %165, align 8, !tbaa !3
  %167 = mul i64 %166, 100000000000000
  %168 = sub i64 %164, %167
  %169 = load ptr, ptr %6, align 8, !tbaa !24
  store i64 %168, ptr %169, align 8, !tbaa !3
  br label %170

170:                                              ; preds = %118, %160, %150, %140, %130, %120
  br label %224

171:                                              ; preds = %115
  %172 = load i64, ptr %8, align 8, !tbaa !3
  switch i64 %172, label %223 [
    i64 15, label %173
    i64 16, label %183
    i64 17, label %193
    i64 18, label %203
    i64 19, label %213
  ]

173:                                              ; preds = %171
  %174 = load i64, ptr %7, align 8, !tbaa !3
  %175 = udiv i64 %174, 1000000000000000
  %176 = load ptr, ptr %5, align 8, !tbaa !24
  store i64 %175, ptr %176, align 8, !tbaa !3
  %177 = load i64, ptr %7, align 8, !tbaa !3
  %178 = load ptr, ptr %5, align 8, !tbaa !24
  %179 = load i64, ptr %178, align 8, !tbaa !3
  %180 = mul i64 %179, 1000000000000000
  %181 = sub i64 %177, %180
  %182 = load ptr, ptr %6, align 8, !tbaa !24
  store i64 %181, ptr %182, align 8, !tbaa !3
  br label %223

183:                                              ; preds = %171
  %184 = load i64, ptr %7, align 8, !tbaa !3
  %185 = udiv i64 %184, 10000000000000000
  %186 = load ptr, ptr %5, align 8, !tbaa !24
  store i64 %185, ptr %186, align 8, !tbaa !3
  %187 = load i64, ptr %7, align 8, !tbaa !3
  %188 = load ptr, ptr %5, align 8, !tbaa !24
  %189 = load i64, ptr %188, align 8, !tbaa !3
  %190 = mul i64 %189, 10000000000000000
  %191 = sub i64 %187, %190
  %192 = load ptr, ptr %6, align 8, !tbaa !24
  store i64 %191, ptr %192, align 8, !tbaa !3
  br label %223

193:                                              ; preds = %171
  %194 = load i64, ptr %7, align 8, !tbaa !3
  %195 = udiv i64 %194, 100000000000000000
  %196 = load ptr, ptr %5, align 8, !tbaa !24
  store i64 %195, ptr %196, align 8, !tbaa !3
  %197 = load i64, ptr %7, align 8, !tbaa !3
  %198 = load ptr, ptr %5, align 8, !tbaa !24
  %199 = load i64, ptr %198, align 8, !tbaa !3
  %200 = mul i64 %199, 100000000000000000
  %201 = sub i64 %197, %200
  %202 = load ptr, ptr %6, align 8, !tbaa !24
  store i64 %201, ptr %202, align 8, !tbaa !3
  br label %223

203:                                              ; preds = %171
  %204 = load i64, ptr %7, align 8, !tbaa !3
  %205 = udiv i64 %204, 1000000000000000000
  %206 = load ptr, ptr %5, align 8, !tbaa !24
  store i64 %205, ptr %206, align 8, !tbaa !3
  %207 = load i64, ptr %7, align 8, !tbaa !3
  %208 = load ptr, ptr %5, align 8, !tbaa !24
  %209 = load i64, ptr %208, align 8, !tbaa !3
  %210 = mul i64 %209, 1000000000000000000
  %211 = sub i64 %207, %210
  %212 = load ptr, ptr %6, align 8, !tbaa !24
  store i64 %211, ptr %212, align 8, !tbaa !3
  br label %223

213:                                              ; preds = %171
  %214 = load i64, ptr %7, align 8, !tbaa !3
  %215 = udiv i64 %214, -8446744073709551616
  %216 = load ptr, ptr %5, align 8, !tbaa !24
  store i64 %215, ptr %216, align 8, !tbaa !3
  %217 = load i64, ptr %7, align 8, !tbaa !3
  %218 = load ptr, ptr %5, align 8, !tbaa !24
  %219 = load i64, ptr %218, align 8, !tbaa !3
  %220 = mul i64 %219, -8446744073709551616
  %221 = sub i64 %217, %220
  %222 = load ptr, ptr %6, align 8, !tbaa !24
  store i64 %221, ptr %222, align 8, !tbaa !3
  br label %223

223:                                              ; preds = %171, %213, %203, %193, %183, %173
  br label %224

224:                                              ; preds = %223, %170
  br label %225

225:                                              ; preds = %224, %114
  ret void
}