; Function Attrs: inlinehint mustprogress nofree norecurse nosync nounwind willreturn memory(argmem: write) uwtable
define internal fastcc void @_mpd_divmod_pow10(ptr noundef nonnull writeonly captures(none) %0, ptr noundef nonnull writeonly captures(none) %1, i64 noundef %2, i64 noundef %3) unnamed_addr #26 {
  %5 = icmp ult i64 %3, 10
  br i1 %5, label %6, label %38

6:                                                ; preds = %4
  %7 = icmp samesign ult i64 %3, 5
  br i1 %7, label %8, label %22

8:                                                ; preds = %6
  switch i64 %3, label %default.unreachable [
    i64 0, label %9
    i64 1, label %10
    i64 2, label %13
    i64 3, label %16
    i64 4, label %19
  ]

9:                                                ; preds = %8
  store i64 %2, ptr %0, align 8, !tbaa !3
  br label %.sink.split

10:                                               ; preds = %8
  %11 = udiv i64 %2, 10
  store i64 %11, ptr %0, align 8, !tbaa !3
  %.neg121 = mul i64 %11, -10
  %12 = add i64 %.neg121, %2
  br label %.sink.split

13:                                               ; preds = %8
  %14 = udiv i64 %2, 100
  store i64 %14, ptr %0, align 8, !tbaa !3
  %.neg120 = mul i64 %14, -100
  %15 = add i64 %.neg120, %2
  br label %.sink.split

16:                                               ; preds = %8
  %17 = udiv i64 %2, 1000
  store i64 %17, ptr %0, align 8, !tbaa !3
  %.neg119 = mul i64 %17, -1000
  %18 = add i64 %.neg119, %2
  br label %.sink.split

19:                                               ; preds = %8
  %20 = udiv i64 %2, 10000
  store i64 %20, ptr %0, align 8, !tbaa !3
  %.neg118 = mul i64 %20, -10000
  %21 = add i64 %.neg118, %2
  br label %.sink.split

22:                                               ; preds = %6
  switch i64 %3, label %default.unreachable [
    i64 5, label %23
    i64 6, label %26
    i64 7, label %29
    i64 8, label %32
    i64 9, label %35
  ]

23:                                               ; preds = %22
  %24 = udiv i64 %2, 100000
  store i64 %24, ptr %0, align 8, !tbaa !3
  %.neg117 = mul i64 %24, -100000
  %25 = add i64 %.neg117, %2
  br label %.sink.split

26:                                               ; preds = %22
  %27 = udiv i64 %2, 1000000
  store i64 %27, ptr %0, align 8, !tbaa !3
  %.neg116 = mul i64 %27, -1000000
  %28 = add i64 %.neg116, %2
  br label %.sink.split

29:                                               ; preds = %22
  %30 = udiv i64 %2, 10000000
  store i64 %30, ptr %0, align 8, !tbaa !3
  %.neg115 = mul i64 %30, -10000000
  %31 = add i64 %.neg115, %2
  br label %.sink.split

32:                                               ; preds = %22
  %33 = udiv i64 %2, 100000000
  store i64 %33, ptr %0, align 8, !tbaa !3
  %.neg114 = mul i64 %33, -100000000
  %34 = add i64 %.neg114, %2
  br label %.sink.split

35:                                               ; preds = %22
  %36 = udiv i64 %2, 1000000000
  store i64 %36, ptr %0, align 8, !tbaa !3
  %.neg113 = mul i64 %36, -1000000000
  %37 = add i64 %.neg113, %2
  br label %.sink.split

38:                                               ; preds = %4
  %39 = icmp ult i64 %3, 15
  br i1 %39, label %40, label %56

40:                                               ; preds = %38
  switch i64 %3, label %default.unreachable [
    i64 10, label %41
    i64 11, label %44
    i64 12, label %47
    i64 13, label %50
    i64 14, label %53
  ]

41:                                               ; preds = %40
  %42 = udiv i64 %2, 10000000000
  store i64 %42, ptr %0, align 8, !tbaa !3
  %.neg112 = mul i64 %42, -10000000000
  %43 = add i64 %.neg112, %2
  br label %.sink.split

44:                                               ; preds = %40
  %45 = udiv i64 %2, 100000000000
  store i64 %45, ptr %0, align 8, !tbaa !3
  %.neg111 = mul i64 %45, -100000000000
  %46 = add i64 %.neg111, %2
  br label %.sink.split

47:                                               ; preds = %40
  %48 = udiv i64 %2, 1000000000000
  store i64 %48, ptr %0, align 8, !tbaa !3
  %.neg110 = mul i64 %48, -1000000000000
  %49 = add i64 %.neg110, %2
  br label %.sink.split

50:                                               ; preds = %40
  %51 = udiv i64 %2, 10000000000000
  store i64 %51, ptr %0, align 8, !tbaa !3
  %.neg109 = mul i64 %51, -10000000000000
  %52 = add i64 %.neg109, %2
  br label %.sink.split

53:                                               ; preds = %40
  %54 = udiv i64 %2, 100000000000000
  store i64 %54, ptr %0, align 8, !tbaa !3
  %.neg108 = mul i64 %54, -100000000000000
  %55 = add i64 %.neg108, %2
  br label %.sink.split

56:                                               ; preds = %38
  switch i64 %3, label %73 [
    i64 15, label %57
    i64 16, label %60
    i64 17, label %63
    i64 18, label %66
    i64 19, label %69
  ]

57:                                               ; preds = %56
  %58 = udiv i64 %2, 1000000000000000
  store i64 %58, ptr %0, align 8, !tbaa !3
  %.neg107 = mul i64 %58, -1000000000000000
  %59 = add i64 %.neg107, %2
  br label %.sink.split

60:                                               ; preds = %56
  %61 = udiv i64 %2, 10000000000000000
  store i64 %61, ptr %0, align 8, !tbaa !3
  %.neg106 = mul i64 %61, -10000000000000000
  %62 = add i64 %.neg106, %2
  br label %.sink.split

63:                                               ; preds = %56
  %64 = udiv i64 %2, 100000000000000000
  store i64 %64, ptr %0, align 8, !tbaa !3
  %.neg105 = mul i64 %64, -100000000000000000
  %65 = add i64 %.neg105, %2
  br label %.sink.split

66:                                               ; preds = %56
  %67 = udiv i64 %2, 1000000000000000000
  store i64 %67, ptr %0, align 8, !tbaa !3
  %.neg104 = mul i64 %67, -1000000000000000000
  %68 = add i64 %.neg104, %2
  br label %.sink.split

69:                                               ; preds = %56
  %70 = icmp ugt i64 %2, -8446744073709551617
  %71 = zext i1 %70 to i64
  store i64 %71, ptr %0, align 8, !tbaa !3
  %.neg = select i1 %70, i64 8446744073709551616, i64 0
  %72 = add i64 %.neg, %2
  br label %.sink.split

default.unreachable:                              ; preds = %40, %22, %8
  unreachable

.sink.split:                                      ; preds = %23, %26, %29, %32, %35, %9, %10, %13, %16, %19, %57, %60, %63, %66, %69, %41, %44, %47, %50, %53
  %.sink = phi i64 [ %55, %53 ], [ %52, %50 ], [ %49, %47 ], [ %46, %44 ], [ %43, %41 ], [ %72, %69 ], [ %68, %66 ], [ %65, %63 ], [ %62, %60 ], [ %59, %57 ], [ %21, %19 ], [ %18, %16 ], [ %15, %13 ], [ %12, %10 ], [ 0, %9 ], [ %37, %35 ], [ %34, %32 ], [ %31, %29 ], [ %28, %26 ], [ %25, %23 ]
  store i64 %.sink, ptr %1, align 8, !tbaa !3
  br label %73

73:                                               ; preds = %.sink.split, %56
  ret void
}